; Function Attrs: mustprogress uwtable
define hidden void @_ZN4LIEF5MachO8TrieEdge6createERKNSt7__cxx1112basic_stringIcSt11char_traitsIcESaIcEEERNS0_8TrieNodeE(ptr dead_on_unwind noalias nocapture writable writeonly sret(%"class.std::unique_ptr.44") align 8 %0, ptr noundef nonnull align 8 dereferenceable(32) %1, ptr noundef nonnull align 8 dereferenceable(118) %2) local_unnamed_addr #3 align 2 personality ptr @__gxx_personality_v0 {
  %4 = alloca %"class.std::__cxx11::basic_string", align 8
  tail call void @llvm.experimental.noalias.scope.decl(metadata !4)
  call void @llvm.lifetime.start.p0(i64 32, ptr nonnull %4)
  %5 = tail call noalias noundef nonnull dereferenceable(40) ptr @_Znwm(i64 noundef 40) #21, !noalias !4
  invoke void @_ZNSt7__cxx1112basic_stringIcSt11char_traitsIcESaIcEEC1ERKS4_(ptr noundef nonnull align 8 dereferenceable(32) %4, ptr noundef nonnull align 8 dereferenceable(32) %1)
          to label %_ZSt11make_uniqueIN4LIEF5MachO8TrieEdgeEJRKNSt7__cxx1112basic_stringIcSt11char_traitsIcESaIcEEERNS1_8TrieNodeEEENSt8__detail9_MakeUniqIT_E15__single_objectEDpOT0_.exit unwind label %6, !noalias !4

6:                                                ; preds = %3
  %7 = landingpad { ptr, i32 }
          cleanup
  call void @_ZdlPv(ptr noundef nonnull %5) #20, !noalias !4
  resume { ptr, i32 } %7

_ZSt11make_uniqueIN4LIEF5MachO8TrieEdgeEJRKNSt7__cxx1112basic_stringIcSt11char_traitsIcESaIcEEERNS1_8TrieNodeEEENSt8__detail9_MakeUniqIT_E15__single_objectEDpOT0_.exit: ; preds = %3
  call void @_ZNSt7__cxx1112basic_stringIcSt11char_traitsIcESaIcEEC1EOS4_(ptr noundef nonnull align 8 dereferenceable(32) %5, ptr noundef nonnull align 8 dereferenceable(32) %4) #19, !noalias !4
  %8 = getelementptr inbounds i8, ptr %5, i64 32
  store ptr %2, ptr %8, align 8, !noalias !4
  store ptr %5, ptr %0, align 8, !alias.scope !4
  call void @_ZNSt7__cxx1112basic_stringIcSt11char_traitsIcESaIcEED1Ev(ptr noundef nonnull align 8 dereferenceable(32) %4) #19, !noalias !4
  call void @llvm.lifetime.end.p0(i64 32, ptr nonnull %4)
  ret void
}